target datalayout = "e-m:e-p270:32:32-p271:32:32-p272:64:64-i64:64-i128:128-f80:128-n8:16:32:64-S128"
target triple = "x86_64-pc-linux-gnu"

%"struct.Luau::CodeGen::X64::RegisterX64" = type { i8 }
%"struct.Luau::CodeGen::X64::OperandX64" = type { i8, %"struct.Luau::CodeGen::X64::RegisterX64", %"struct.Luau::CodeGen::X64::RegisterX64", i8, i32 }
%"class.Luau::CodeGen::X64::IrCallWrapperX64" = type { ptr, ptr, i32, %"struct.std::array", i32, i32, i32, %"struct.Luau::CodeGen::X64::OperandX64", %"struct.std::array.0", %"struct.std::array.0" }
%"struct.std::array" = type { [6 x %"struct.Luau::CodeGen::X64::CallArgument"] }
%"struct.Luau::CodeGen::X64::CallArgument" = type <{ i8, [3 x i8], %"struct.Luau::CodeGen::X64::OperandX64", %"struct.Luau::CodeGen::IrOp", %"struct.Luau::CodeGen::X64::OperandX64", i8, [3 x i8] }>
%"struct.Luau::CodeGen::IrOp" = type { i32 }
%"struct.std::array.0" = type { [16 x i8] }

; Function Attrs: mustprogress nounwind uwtable
define linkonce_odr dso_local noundef nonnull align 1 dereferenceable(1) ptr @_ZNSt14__array_traitsIhLm16EE6_S_refERA16_Khm(ptr noundef nonnull align 1 dereferenceable(16) %0, i64 noundef %1) #3 comdat align 2 {
  %3 = alloca ptr, align 8
  %4 = alloca i64, align 8
  store ptr %0, ptr %3, align 8, !tbaa !36
  store i64 %1, ptr %4, align 8, !tbaa !83
  %5 = load ptr, ptr %3, align 8, !tbaa !36
  %6 = load i64, ptr %4, align 8, !tbaa !83
  %7 = getelementptr inbounds nuw [16 x i8], ptr %5, i64 0, i64 %6
  ret ptr %7
}

; Function Attrs: mustprogress nounwind uwtable
define linkonce_odr dso_local noundef nonnull align 1 dereferenceable(1) ptr @_ZNSt5arrayIhLm16EEixEm(ptr noundef nonnull align 1 dereferenceable(16) %0, i64 noundef %1) #3 comdat align 2 {
  %3 = alloca ptr, align 8
  %4 = alloca i64, align 8
  store ptr %0, ptr %3, align 8, !tbaa !34
  store i64 %1, ptr %4, align 8, !tbaa !83
  %5 = load ptr, ptr %3, align 8
  %6 = getelementptr inbounds nuw %"struct.std::array.0", ptr %5, i32 0, i32 0
  %7 = load i64, ptr %4, align 8, !tbaa !83
  %8 = call noundef nonnull align 1 dereferenceable(1) ptr @_ZNSt14__array_traitsIhLm16EE6_S_refERA16_Khm(ptr noundef nonnull align 1 dereferenceable(16) %6, i64 noundef %7) #10
  ret ptr %8
}

; Function Attrs: mustprogress nounwind uwtable
define linkonce_odr dso_local noundef nonnull align 4 dereferenceable(25) ptr @_ZNSt14__array_traitsIN4Luau7CodeGen3X6412CallArgumentELm6EE6_S_refERA6_KS3_m(ptr noundef nonnull align 4 dereferenceable(168) %0, i64 noundef %1) #3 comdat align 2 {
  %3 = alloca ptr, align 8
  %4 = alloca i64, align 8
  store ptr %0, ptr %3, align 8, !tbaa !39
  store i64 %1, ptr %4, align 8, !tbaa !83
  %5 = load ptr, ptr %3, align 8, !tbaa !39
  %6 = load i64, ptr %4, align 8, !tbaa !83
  %7 = getelementptr inbounds nuw [6 x %"struct.Luau::CodeGen::X64::CallArgument"], ptr %5, i64 0, i64 %6
  ret ptr %7
}

; Function Attrs: mustprogress nounwind uwtable
define dso_local void @_ZN4Luau7CodeGen3X6416IrCallWrapperX6414addRegisterUseENS1_11RegisterX64E(ptr noundef nonnull align 8 dereferenceable(240) %0, i8 %1) #3 align 2 {
  %3 = alloca %"struct.Luau::CodeGen::X64::RegisterX64", align 1
  %4 = alloca ptr, align 8
  %5 = getelementptr inbounds nuw %"struct.Luau::CodeGen::X64::RegisterX64", ptr %3, i32 0, i32 0
  store i8 %1, ptr %5, align 1
  store ptr %0, ptr %4, align 8, !tbaa !4
  %6 = load ptr, ptr %4, align 8
  %7 = load i8, ptr %3, align 1
  %8 = and i8 %7, 7
  %9 = icmp eq i8 %8, 5
  br i1 %9, label %10, label %18

10:                                               ; preds = %2
  %11 = getelementptr inbounds nuw %"class.Luau::CodeGen::X64::IrCallWrapperX64", ptr %6, i32 0, i32 9
  %12 = load i8, ptr %3, align 1
  %13 = lshr i8 %12, 3
  %14 = zext i8 %13 to i64
  %15 = call noundef nonnull align 1 dereferenceable(1) ptr @_ZNSt5arrayIhLm16EEixEm(ptr noundef nonnull align 1 dereferenceable(16) %11, i64 noundef %14) #10
  %16 = load i8, ptr %15, align 1, !tbaa !27
  %17 = add i8 %16, 1
  store i8 %17, ptr %15, align 1, !tbaa !27
  br label %31

18:                                               ; preds = %2
  %19 = load i8, ptr %3, align 1
  %20 = and i8 %19, 7
  %21 = icmp ne i8 %20, 0
  br i1 %21, label %22, label %30

22:                                               ; preds = %18
  %23 = getelementptr inbounds nuw %"class.Luau::CodeGen::X64::IrCallWrapperX64", ptr %6, i32 0, i32 8
  %24 = load i8, ptr %3, align 1
  %25 = lshr i8 %24, 3
  %26 = zext i8 %25 to i64
  %27 = call noundef nonnull align 1 dereferenceable(1) ptr @_ZNSt5arrayIhLm16EEixEm(ptr noundef nonnull align 1 dereferenceable(16) %23, i64 noundef %26) #10
  %28 = load i8, ptr %27, align 1, !tbaa !27
  %29 = add i8 %28, 1
  store i8 %29, ptr %27, align 1, !tbaa !27
  br label %30

30:                                               ; preds = %22, %18
  br label %31

31:                                               ; preds = %30, %10
  ret void
}

; Function Attrs: mustprogress nounwind uwtable
define linkonce_odr dso_local noundef nonnull align 4 dereferenceable(25) ptr @_ZNSt5arrayIN4Luau7CodeGen3X6412CallArgumentELm6EEixEm(ptr noundef nonnull align 4 dereferenceable(168) %0, i64 noundef %1) #3 comdat align 2 {
  %3 = alloca ptr, align 8
  %4 = alloca i64, align 8
  store ptr %0, ptr %3, align 8, !tbaa !28
  store i64 %1, ptr %4, align 8, !tbaa !83
  %5 = load ptr, ptr %3, align 8
  %6 = getelementptr inbounds nuw %"struct.std::array", ptr %5, i32 0, i32 0
  %7 = load i64, ptr %4, align 8, !tbaa !83
  %8 = call noundef nonnull align 4 dereferenceable(25) ptr @_ZNSt14__array_traitsIN4Luau7CodeGen3X6412CallArgumentELm6EE6_S_refERA6_KS3_m(ptr noundef nonnull align 4 dereferenceable(168) %6, i64 noundef %7) #10
  ret ptr %8
}

; Function Attrs: mustprogress uwtable
define dso_local void @_ZN4Luau7CodeGen3X6416IrCallWrapperX6417countRegisterUsesEv(ptr noundef nonnull align 8 dereferenceable(240) %0) #0 align 2 {
  %2 = alloca ptr, align 8
  %3 = alloca i32, align 4
  %4 = alloca %"struct.Luau::CodeGen::X64::RegisterX64", align 1
  %5 = alloca %"struct.Luau::CodeGen::X64::RegisterX64", align 1
  %6 = alloca %"struct.Luau::CodeGen::X64::RegisterX64", align 1
  %7 = alloca %"struct.Luau::CodeGen::X64::RegisterX64", align 1
  store ptr %0, ptr %2, align 8, !tbaa !4
  %8 = load ptr, ptr %2, align 8
  call void @llvm.lifetime.start.p0(i64 4, ptr %3) #10
  store i32 0, ptr %3, align 4, !tbaa !13
  br label %9

9:                                                ; preds = %32, %1
  %10 = load i32, ptr %3, align 4, !tbaa !13
  %11 = getelementptr inbounds nuw %"class.Luau::CodeGen::X64::IrCallWrapperX64", ptr %8, i32 0, i32 4
  %12 = load i32, ptr %11, align 4, !tbaa !23
  %13 = icmp slt i32 %10, %12
  br i1 %13, label %15, label %14

14:                                               ; preds = %9
  call void @llvm.lifetime.end.p0(i64 4, ptr %3) #10
  br label %35

15:                                               ; preds = %9
  %16 = getelementptr inbounds nuw %"class.Luau::CodeGen::X64::IrCallWrapperX64", ptr %8, i32 0, i32 3
  %17 = load i32, ptr %3, align 4, !tbaa !13
  %18 = sext i32 %17 to i64
  %19 = call noundef nonnull align 4 dereferenceable(25) ptr @_ZNSt5arrayIN4Luau7CodeGen3X6412CallArgumentELm6EEixEm(ptr noundef nonnull align 4 dereferenceable(168) %16, i64 noundef %18) #10
  %20 = getelementptr inbounds nuw %"struct.Luau::CodeGen::X64::CallArgument", ptr %19, i32 0, i32 2
  %21 = getelementptr inbounds nuw %"struct.Luau::CodeGen::X64::OperandX64", ptr %20, i32 0, i32 2
  call void @llvm.memcpy.p0.p0.i64(ptr align 1 %4, ptr align 2 %21, i64 1, i1 false), !tbaa.struct !26
  %22 = getelementptr inbounds nuw %"struct.Luau::CodeGen::X64::RegisterX64", ptr %4, i32 0, i32 0
  %23 = load i8, ptr %22, align 1
  call void @_ZN4Luau7CodeGen3X6416IrCallWrapperX6414addRegisterUseENS1_11RegisterX64E(ptr noundef nonnull align 8 dereferenceable(240) %8, i8 %23)
  %24 = getelementptr inbounds nuw %"class.Luau::CodeGen::X64::IrCallWrapperX64", ptr %8, i32 0, i32 3
  %25 = load i32, ptr %3, align 4, !tbaa !13
  %26 = sext i32 %25 to i64
  %27 = call noundef nonnull align 4 dereferenceable(25) ptr @_ZNSt5arrayIN4Luau7CodeGen3X6412CallArgumentELm6EEixEm(ptr noundef nonnull align 4 dereferenceable(168) %24, i64 noundef %26) #10
  %28 = getelementptr inbounds nuw %"struct.Luau::CodeGen::X64::CallArgument", ptr %27, i32 0, i32 2
  %29 = getelementptr inbounds nuw %"struct.Luau::CodeGen::X64::OperandX64", ptr %28, i32 0, i32 1
  call void @llvm.memcpy.p0.p0.i64(ptr align 1 %5, ptr align 1 %29, i64 1, i1 false), !tbaa.struct !26
  %30 = getelementptr inbounds nuw %"struct.Luau::CodeGen::X64::RegisterX64", ptr %5, i32 0, i32 0
  %31 = load i8, ptr %30, align 1
  call void @_ZN4Luau7CodeGen3X6416IrCallWrapperX6414addRegisterUseENS1_11RegisterX64E(ptr noundef nonnull align 8 dereferenceable(240) %8, i8 %31)
  br label %32

32:                                               ; preds = %15
  %33 = load i32, ptr %3, align 4, !tbaa !13
  %34 = add nsw i32 %33, 1
  store i32 %34, ptr %3, align 4, !tbaa !13
  br label %9, !llvm.loop !114

35:                                               ; preds = %14
  %36 = getelementptr inbounds nuw %"class.Luau::CodeGen::X64::IrCallWrapperX64", ptr %8, i32 0, i32 7
  %37 = getelementptr inbounds nuw %"struct.Luau::CodeGen::X64::OperandX64", ptr %36, i32 0, i32 2
  call void @llvm.memcpy.p0.p0.i64(ptr align 1 %6, ptr align 2 %37, i64 1, i1 false), !tbaa.struct !26
  %38 = getelementptr inbounds nuw %"struct.Luau::CodeGen::X64::RegisterX64", ptr %6, i32 0, i32 0
  %39 = load i8, ptr %38, align 1
  call void @_ZN4Luau7CodeGen3X6416IrCallWrapperX6414addRegisterUseENS1_11RegisterX64E(ptr noundef nonnull align 8 dereferenceable(240) %8, i8 %39)
  %40 = getelementptr inbounds nuw %"class.Luau::CodeGen::X64::IrCallWrapperX64", ptr %8, i32 0, i32 7
  %41 = getelementptr inbounds nuw %"struct.Luau::CodeGen::X64::OperandX64", ptr %40, i32 0, i32 1
  call void @llvm.memcpy.p0.p0.i64(ptr align 1 %7, ptr align 1 %41, i64 1, i1 false), !tbaa.struct !26
  %42 = getelementptr inbounds nuw %"struct.Luau::CodeGen::X64::RegisterX64", ptr %7, i32 0, i32 0
  %43 = load i8, ptr %42, align 1
  call void @_ZN4Luau7CodeGen3X6416IrCallWrapperX6414addRegisterUseENS1_11RegisterX64E(ptr noundef nonnull align 8 dereferenceable(240) %8, i8 %43)
  ret void
}