; Function Attrs: mustprogress nofree norecurse nosync nounwind memory(argmem: readwrite) uwtable
define dso_local void @_ZN4Luau7CodeGen3X6416IrCallWrapperX6417countRegisterUsesEv(ptr noundef nonnull align 8 captures(none) dereferenceable(240) %0) local_unnamed_addr #6 align 2 {
  %2 = getelementptr inbounds nuw i8, ptr %0, i64 188
  %3 = load i32, ptr %2, align 4, !tbaa !29
  %4 = icmp sgt i32 %3, 0
  br i1 %4, label %.lr.ph, label %._crit_edge

.lr.ph:                                           ; preds = %1
  %5 = getelementptr inbounds nuw i8, ptr %0, i64 20
  %wide.trip.count = zext nneg i32 %3 to i64
  br label %24

._crit_edge:                                      ; preds = %_ZN4Luau7CodeGen3X6416IrCallWrapperX6414addRegisterUseENS1_11RegisterX64E.exit15, %1
  %6 = getelementptr inbounds nuw i8, ptr %0, i64 202
  %.sroa.01.0.copyload = load i8, ptr %6, align 2, !tbaa !26
  %7 = and i8 %.sroa.01.0.copyload, 7
  switch i8 %7, label %8 [
    i8 5, label %.sink.split.i
    i8 0, label %_ZN4Luau7CodeGen3X6416IrCallWrapperX6414addRegisterUseENS1_11RegisterX64E.exit
  ]

8:                                                ; preds = %._crit_edge
  br label %.sink.split.i

.sink.split.i:                                    ; preds = %8, %._crit_edge
  %.sink.i = phi i64 [ 208, %8 ], [ 224, %._crit_edge ]
  %9 = getelementptr inbounds nuw i8, ptr %0, i64 %.sink.i
  %10 = lshr i8 %.sroa.01.0.copyload, 3
  %11 = zext nneg i8 %10 to i64
  %12 = getelementptr inbounds nuw [16 x i8], ptr %9, i64 0, i64 %11
  %13 = load i8, ptr %12, align 1, !tbaa !26
  %14 = add i8 %13, 1
  store i8 %14, ptr %12, align 1, !tbaa !26
  br label %_ZN4Luau7CodeGen3X6416IrCallWrapperX6414addRegisterUseENS1_11RegisterX64E.exit

_ZN4Luau7CodeGen3X6416IrCallWrapperX6414addRegisterUseENS1_11RegisterX64E.exit: ; preds = %._crit_edge, %.sink.split.i
  %15 = getelementptr inbounds nuw i8, ptr %0, i64 201
  %.sroa.0.0.copyload = load i8, ptr %15, align 1, !tbaa !26
  %16 = and i8 %.sroa.0.0.copyload, 7
  switch i8 %16, label %17 [
    i8 5, label %.sink.split.i7
    i8 0, label %_ZN4Luau7CodeGen3X6416IrCallWrapperX6414addRegisterUseENS1_11RegisterX64E.exit9
  ]

17:                                               ; preds = %_ZN4Luau7CodeGen3X6416IrCallWrapperX6414addRegisterUseENS1_11RegisterX64E.exit
  br label %.sink.split.i7

.sink.split.i7:                                   ; preds = %17, %_ZN4Luau7CodeGen3X6416IrCallWrapperX6414addRegisterUseENS1_11RegisterX64E.exit
  %.sink.i8 = phi i64 [ 208, %17 ], [ 224, %_ZN4Luau7CodeGen3X6416IrCallWrapperX6414addRegisterUseENS1_11RegisterX64E.exit ]
  %18 = getelementptr inbounds nuw i8, ptr %0, i64 %.sink.i8
  %19 = lshr i8 %.sroa.0.0.copyload, 3
  %20 = zext nneg i8 %19 to i64
  %21 = getelementptr inbounds nuw [16 x i8], ptr %18, i64 0, i64 %20
  %22 = load i8, ptr %21, align 1, !tbaa !26
  %23 = add i8 %22, 1
  store i8 %23, ptr %21, align 1, !tbaa !26
  br label %_ZN4Luau7CodeGen3X6416IrCallWrapperX6414addRegisterUseENS1_11RegisterX64E.exit9

_ZN4Luau7CodeGen3X6416IrCallWrapperX6414addRegisterUseENS1_11RegisterX64E.exit9: ; preds = %_ZN4Luau7CodeGen3X6416IrCallWrapperX6414addRegisterUseENS1_11RegisterX64E.exit, %.sink.split.i7
  ret void

24:                                               ; preds = %.lr.ph, %_ZN4Luau7CodeGen3X6416IrCallWrapperX6414addRegisterUseENS1_11RegisterX64E.exit15
  %indvars.iv = phi i64 [ 0, %.lr.ph ], [ %indvars.iv.next, %_ZN4Luau7CodeGen3X6416IrCallWrapperX6414addRegisterUseENS1_11RegisterX64E.exit15 ]
  %25 = getelementptr inbounds nuw [6 x %"struct.Luau::CodeGen::X64::CallArgument"], ptr %5, i64 0, i64 %indvars.iv
  %26 = getelementptr inbounds nuw i8, ptr %25, i64 6
  %.sroa.03.0.copyload = load i8, ptr %26, align 2, !tbaa !26
  %27 = and i8 %.sroa.03.0.copyload, 7
  switch i8 %27, label %28 [
    i8 5, label %.sink.split.i10
    i8 0, label %_ZN4Luau7CodeGen3X6416IrCallWrapperX6414addRegisterUseENS1_11RegisterX64E.exit12
  ]

28:                                               ; preds = %24
  br label %.sink.split.i10

.sink.split.i10:                                  ; preds = %28, %24
  %.sink.i11 = phi i64 [ 208, %28 ], [ 224, %24 ]
  %29 = getelementptr inbounds nuw i8, ptr %0, i64 %.sink.i11
  %30 = lshr i8 %.sroa.03.0.copyload, 3
  %31 = zext nneg i8 %30 to i64
  %32 = getelementptr inbounds nuw [16 x i8], ptr %29, i64 0, i64 %31
  %33 = load i8, ptr %32, align 1, !tbaa !26
  %34 = add i8 %33, 1
  store i8 %34, ptr %32, align 1, !tbaa !26
  br label %_ZN4Luau7CodeGen3X6416IrCallWrapperX6414addRegisterUseENS1_11RegisterX64E.exit12

_ZN4Luau7CodeGen3X6416IrCallWrapperX6414addRegisterUseENS1_11RegisterX64E.exit12: ; preds = %24, %.sink.split.i10
  %35 = getelementptr inbounds nuw i8, ptr %25, i64 5
  %.sroa.02.0.copyload = load i8, ptr %35, align 1, !tbaa !26
  %36 = and i8 %.sroa.02.0.copyload, 7
  switch i8 %36, label %37 [
    i8 5, label %.sink.split.i13
    i8 0, label %_ZN4Luau7CodeGen3X6416IrCallWrapperX6414addRegisterUseENS1_11RegisterX64E.exit15
  ]

37:                                               ; preds = %_ZN4Luau7CodeGen3X6416IrCallWrapperX6414addRegisterUseENS1_11RegisterX64E.exit12
  br label %.sink.split.i13

.sink.split.i13:                                  ; preds = %37, %_ZN4Luau7CodeGen3X6416IrCallWrapperX6414addRegisterUseENS1_11RegisterX64E.exit12
  %.sink.i14 = phi i64 [ 208, %37 ], [ 224, %_ZN4Luau7CodeGen3X6416IrCallWrapperX6414addRegisterUseENS1_11RegisterX64E.exit12 ]
  %38 = getelementptr inbounds nuw i8, ptr %0, i64 %.sink.i14
  %39 = lshr i8 %.sroa.02.0.copyload, 3
  %40 = zext nneg i8 %39 to i64
  %41 = getelementptr inbounds nuw [16 x i8], ptr %38, i64 0, i64 %40
  %42 = load i8, ptr %41, align 1, !tbaa !26
  %43 = add i8 %42, 1
  store i8 %43, ptr %41, align 1, !tbaa !26
  br label %_ZN4Luau7CodeGen3X6416IrCallWrapperX6414addRegisterUseENS1_11RegisterX64E.exit15

_ZN4Luau7CodeGen3X6416IrCallWrapperX6414addRegisterUseENS1_11RegisterX64E.exit15: ; preds = %_ZN4Luau7CodeGen3X6416IrCallWrapperX6414addRegisterUseENS1_11RegisterX64E.exit12, %.sink.split.i13
  %indvars.iv.next = add nuw nsw i64 %indvars.iv, 1
  %exitcond.not = icmp eq i64 %indvars.iv.next, %wide.trip.count
  br i1 %exitcond.not, label %._crit_edge, label %24, !llvm.loop !68
}